; Function Attrs: nounwind sspstrong uwtable
define dso_local void @tcg_gen_gvec_4_ool(i32 noundef %0, i32 noundef %1, i32 noundef %2, i32 noundef %3, i32 noundef %4, i32 noundef %5, i32 noundef %6, ptr noundef readonly captures(none) %7) local_unnamed_addr #2 {
  switch i32 %4, label %11 [
    i32 8, label %9
    i32 16, label %9
    i32 32, label %9
  ]

9:                                                ; preds = %8, %8, %8
  %10 = icmp ule i32 %4, %5
  br label %check_size_align.exit.i

11:                                               ; preds = %8
  %12 = icmp eq i32 %4, %5
  br label %check_size_align.exit.i

check_size_align.exit.i:                          ; preds = %11, %9
  %.sink.i.i = phi i1 [ %10, %9 ], [ %12, %11 ]
  tail call void @llvm.assume(i1 %.sink.i.i)
  %13 = icmp ult i32 %5, 2049
  tail call void @llvm.assume(i1 %13)
  %14 = icmp samesign ugt i32 %5, 15
  %15 = select i1 %14, i32 15, i32 7
  %16 = and i32 %15, %5
  %17 = icmp eq i32 %16, 0
  tail call void @llvm.assume(i1 %17)
  %18 = add i32 %6, 2097152
  %19 = icmp ult i32 %18, 4194304
  br i1 %19, label %simd_desc.exit, label %20

20:                                               ; preds = %check_size_align.exit.i
  %21 = icmp ult i32 %6, 4194304
  tail call void @llvm.assume(i1 %21)
  br label %simd_desc.exit

simd_desc.exit:                                   ; preds = %check_size_align.exit.i, %20
  %22 = lshr i32 %4, 3
  %23 = lshr i32 %5, 3
  %24 = add nuw nsw i32 %23, 255
  %25 = icmp eq i32 %22, %23
  %26 = shl i32 %22, 8
  %27 = add i32 %26, 768
  %28 = and i32 %27, 768
  %29 = select i1 %25, i32 512, i32 %28
  %30 = and i32 %24, 255
  %31 = or disjoint i32 %30, %29
  %32 = shl i32 %6, 10
  %33 = or disjoint i32 %31, %32
  %34 = tail call ptr @tcg_constant_i32(i32 noundef %33) #10
  %35 = tail call ptr @tcg_temp_ebb_new_ptr() #10
  %36 = tail call ptr @tcg_temp_ebb_new_ptr() #10
  %37 = tail call ptr @tcg_temp_ebb_new_ptr() #10
  %38 = tail call ptr @tcg_temp_ebb_new_ptr() #10
  %39 = load ptr, ptr @tcg_env, align 8
  %40 = zext i32 %0 to i64
  tail call void @tcg_gen_addi_i64(ptr noundef %35, ptr noundef %39, i64 noundef range(i64 0, 4294967296) %40) #10
  %41 = load ptr, ptr @tcg_env, align 8
  %42 = zext i32 %1 to i64
  tail call void @tcg_gen_addi_i64(ptr noundef %36, ptr noundef %41, i64 noundef range(i64 0, 4294967296) %42) #10
  %43 = load ptr, ptr @tcg_env, align 8
  %44 = zext i32 %2 to i64
  tail call void @tcg_gen_addi_i64(ptr noundef %37, ptr noundef %43, i64 noundef range(i64 0, 4294967296) %44) #10
  %45 = load ptr, ptr @tcg_env, align 8
  %46 = zext i32 %3 to i64
  tail call void @tcg_gen_addi_i64(ptr noundef %38, ptr noundef %45, i64 noundef range(i64 0, 4294967296) %46) #10
  tail call void %7(ptr noundef %35, ptr noundef %36, ptr noundef %37, ptr noundef %38, ptr noundef %34) #10
  tail call void @tcg_temp_free_ptr(ptr noundef %35) #10
  tail call void @tcg_temp_free_ptr(ptr noundef %36) #10
  tail call void @tcg_temp_free_ptr(ptr noundef %37) #10
  tail call void @tcg_temp_free_ptr(ptr noundef %38) #10
  ret void
}